target datalayout = "e-m:e-p270:32:32-p271:32:32-p272:64:64-i64:64-i128:128-f80:128-n8:16:32:64-S128"
target triple = "x86_64-pc-linux-gnu"

%struct.H5S_select_class_t = type { i32, ptr, ptr, ptr, ptr, ptr, ptr, ptr, ptr, ptr, ptr, ptr, ptr, ptr, ptr, ptr, ptr, ptr, ptr, ptr, ptr }
%struct.H5S_t = type { %struct.H5S_extent_t, %struct.H5S_select_t }
%struct.H5S_extent_t = type { %struct.H5O_shared_t, i32, i32, i64, i32, ptr, ptr }
%struct.H5O_shared_t = type { i32, ptr, i32, %union.anon }
%union.anon = type { %struct.H5O_mesg_loc_t }
%struct.H5O_mesg_loc_t = type { i32, i64 }
%struct.H5S_select_t = type { ptr, i8, [32 x i64], i64, %union.anon.0 }
%union.anon.0 = type { ptr }

@.str.1 = private unnamed_addr constant [103 x i8] c"generated/home/dtcxzyw/WorkSpace/Projects/compilers/llvm-opt-benchmark/bench/hdf5/hdf5/src/H5Sselect.c\00", align 1
@H5E_DATASPACE_g = external global i64, align 8
@H5E_CANTCOPY_g = external global i64, align 8
@__func__.H5S_select_copy = private unnamed_addr constant [16 x i8] c"H5S_select_copy\00", align 1
@H5E_CANTRELEASE_g = external global i64, align 8
@.str.8 = private unnamed_addr constant [28 x i8] c"unable to release selection\00", align 1
@.str.9 = private unnamed_addr constant [42 x i8] c"can't copy selection specific information\00", align 1
@__func__.H5S_select_release = private unnamed_addr constant [19 x i8] c"H5S_select_release\00", align 1

; Function Attrs: nounwind uwtable
define i32 @H5S_select_release(ptr noundef %0) #0 {
  %2 = alloca ptr, align 8
  %3 = alloca i32, align 4
  %4 = alloca i8, align 1
  store ptr %0, ptr %2, align 8
  store i32 0, ptr %3, align 4
  store i8 0, ptr %4, align 1
  %5 = load ptr, ptr %2, align 8
  %6 = getelementptr inbounds %struct.H5S_t, ptr %5, i32 0, i32 1
  %7 = getelementptr inbounds %struct.H5S_select_t, ptr %6, i32 0, i32 0
  %8 = load ptr, ptr %7, align 8
  %9 = icmp ne ptr %8, null
  br i1 %9, label %10, label %35

10:                                               ; preds = %1
  %11 = load ptr, ptr %2, align 8
  %12 = getelementptr inbounds %struct.H5S_t, ptr %11, i32 0, i32 1
  %13 = getelementptr inbounds %struct.H5S_select_t, ptr %12, i32 0, i32 0
  %14 = load ptr, ptr %13, align 8
  %15 = getelementptr inbounds %struct.H5S_select_class_t, ptr %14, i32 0, i32 2
  %16 = load ptr, ptr %15, align 8
  %17 = load ptr, ptr %2, align 8
  %18 = call i32 %16(ptr noundef %17)
  store i32 %18, ptr %3, align 4
  %19 = icmp slt i32 %18, 0
  br i1 %19, label %20, label %35

20:                                               ; preds = %10
  br label %21

21:                                               ; preds = %20
  br label %22

22:                                               ; preds = %21
  br label %23

23:                                               ; preds = %22
  %24 = load i64, ptr @H5E_DATASPACE_g, align 8
  %25 = load i64, ptr @H5E_CANTRELEASE_g, align 8
  %26 = call i32 (ptr, ptr, i32, i64, i64, ptr, ...) @H5E_printf_stack(ptr noundef @.str.1, ptr noundef @__func__.H5S_select_release, i32 noundef 268, i64 noundef %24, i64 noundef %25, ptr noundef @.str.8)
  br label %27

27:                                               ; preds = %23
  store i8 1, ptr %4, align 1
  %28 = load i8, ptr %4, align 1
  %29 = trunc i8 %28 to i1
  %30 = zext i1 %29 to i8
  store i8 %30, ptr %4, align 1
  br label %31

31:                                               ; preds = %27
  br label %32

32:                                               ; preds = %31
  store i32 -1, ptr %3, align 4
  br label %36

33:                                               ; No predecessors!
  br label %34

34:                                               ; preds = %33
  br label %35

35:                                               ; preds = %34, %10, %1
  br label %36

36:                                               ; preds = %35, %32
  %37 = load i32, ptr %3, align 4
  ret i32 %37
}

; Function Attrs: nounwind uwtable
define i32 @H5S_select_copy(ptr noundef %0, ptr noundef %1, i1 noundef zeroext %2) #0 {
  %4 = alloca ptr, align 8
  %5 = alloca ptr, align 8
  %6 = alloca i8, align 1
  %7 = alloca i32, align 4
  %8 = alloca i8, align 1
  store ptr %0, ptr %4, align 8
  store ptr %1, ptr %5, align 8
  %9 = zext i1 %2 to i8
  store i8 %9, ptr %6, align 1
  store i32 -1, ptr %7, align 4
  store i8 0, ptr %8, align 1
  %10 = load ptr, ptr %4, align 8
  %11 = call i32 @H5S_select_release(ptr noundef %10)
  %12 = icmp slt i32 %11, 0
  br i1 %12, label %13, label %28

13:                                               ; preds = %3
  br label %14

14:                                               ; preds = %13
  br label %15

15:                                               ; preds = %14
  br label %16

16:                                               ; preds = %15
  %17 = load i64, ptr @H5E_DATASPACE_g, align 8
  %18 = load i64, ptr @H5E_CANTRELEASE_g, align 8
  %19 = call i32 (ptr, ptr, i32, i64, i64, ptr, ...) @H5E_printf_stack(ptr noundef @.str.1, ptr noundef @__func__.H5S_select_copy, i32 noundef 231, i64 noundef %17, i64 noundef %18, ptr noundef @.str.8)
  br label %20

20:                                               ; preds = %16
  store i8 1, ptr %8, align 1
  %21 = load i8, ptr %8, align 1
  %22 = trunc i8 %21 to i1
  %23 = zext i1 %22 to i8
  store i8 %23, ptr %8, align 1
  br label %24

24:                                               ; preds = %20
  br label %25

25:                                               ; preds = %24
  store i32 -1, ptr %7, align 4
  br label %61

26:                                               ; No predecessors!
  br label %27

27:                                               ; preds = %26
  br label %28

28:                                               ; preds = %27, %3
  %29 = load ptr, ptr %4, align 8
  %30 = getelementptr inbounds %struct.H5S_t, ptr %29, i32 0, i32 1
  %31 = load ptr, ptr %5, align 8
  %32 = getelementptr inbounds %struct.H5S_t, ptr %31, i32 0, i32 1
  call void @llvm.memcpy.p0.p0.i64(ptr align 8 %30, ptr align 8 %32, i64 288, i1 false)
  %33 = load ptr, ptr %5, align 8
  %34 = getelementptr inbounds %struct.H5S_t, ptr %33, i32 0, i32 1
  %35 = getelementptr inbounds %struct.H5S_select_t, ptr %34, i32 0, i32 0
  %36 = load ptr, ptr %35, align 8
  %37 = getelementptr inbounds %struct.H5S_select_class_t, ptr %36, i32 0, i32 1
  %38 = load ptr, ptr %37, align 8
  %39 = load ptr, ptr %4, align 8
  %40 = load ptr, ptr %5, align 8
  %41 = load i8, ptr %6, align 1
  %42 = trunc i8 %41 to i1
  %43 = call i32 %38(ptr noundef %39, ptr noundef %40, i1 noundef zeroext %42)
  store i32 %43, ptr %7, align 4
  %44 = icmp slt i32 %43, 0
  br i1 %44, label %45, label %60

45:                                               ; preds = %28
  br label %46

46:                                               ; preds = %45
  br label %47

47:                                               ; preds = %46
  br label %48

48:                                               ; preds = %47
  %49 = load i64, ptr @H5E_DATASPACE_g, align 8
  %50 = load i64, ptr @H5E_CANTCOPY_g, align 8
  %51 = call i32 (ptr, ptr, i32, i64, i64, ptr, ...) @H5E_printf_stack(ptr noundef @.str.1, ptr noundef @__func__.H5S_select_copy, i32 noundef 238, i64 noundef %49, i64 noundef %50, ptr noundef @.str.9)
  br label %52

52:                                               ; preds = %48
  store i8 1, ptr %8, align 1
  %53 = load i8, ptr %8, align 1
  %54 = trunc i8 %53 to i1
  %55 = zext i1 %54 to i8
  store i8 %55, ptr %8, align 1
  br label %56

56:                                               ; preds = %52
  br label %57

57:                                               ; preds = %56
  store i32 -1, ptr %7, align 4
  br label %61

58:                                               ; No predecessors!
  br label %59

59:                                               ; preds = %58
  br label %60

60:                                               ; preds = %59, %28
  br label %61

61:                                               ; preds = %60, %57, %25
  %62 = load i32, ptr %7, align 4
  ret i32 %62
}