; Function Attrs: nounwind uwtable
define range(i32 -1, -2147483648) i32 @H5S_select_copy(ptr noundef %0, ptr noundef %1, i1 noundef zeroext %2) local_unnamed_addr #3 {
  %4 = getelementptr inbounds i8, ptr %0, i64 80
  %5 = load ptr, ptr %4, align 8
  %.not.i = icmp eq ptr %5, null
  br i1 %.not.i, label %18, label %6

6:                                                ; preds = %3
  %7 = getelementptr inbounds i8, ptr %5, i64 16
  %8 = load ptr, ptr %7, align 8
  %9 = tail call i32 %8(ptr noundef nonnull %0) #7
  %10 = icmp slt i32 %9, 0
  br i1 %10, label %11, label %18

11:                                               ; preds = %6
  %12 = load i64, ptr @H5E_DATASPACE_g, align 8
  %13 = load i64, ptr @H5E_CANTRELEASE_g, align 8
  %14 = tail call i32 (ptr, ptr, i32, i64, i64, ptr, ...) @H5E_printf_stack(ptr noundef nonnull @.str.1, ptr noundef nonnull @__func__.H5S_select_release, i32 noundef 268, i64 noundef %12, i64 noundef %13, ptr noundef nonnull @.str.8) #7
  %15 = load i64, ptr @H5E_DATASPACE_g, align 8
  %16 = load i64, ptr @H5E_CANTRELEASE_g, align 8
  %17 = tail call i32 (ptr, ptr, i32, i64, i64, ptr, ...) @H5E_printf_stack(ptr noundef nonnull @.str.1, ptr noundef nonnull @__func__.H5S_select_copy, i32 noundef 231, i64 noundef %15, i64 noundef %16, ptr noundef nonnull @.str.8) #7
  br label %29

18:                                               ; preds = %6, %3
  %19 = getelementptr inbounds i8, ptr %1, i64 80
  tail call void @llvm.memcpy.p0.p0.i64(ptr noundef nonnull align 8 dereferenceable(288) %4, ptr noundef nonnull align 8 dereferenceable(288) %19, i64 288, i1 false)
  %20 = load ptr, ptr %19, align 8
  %21 = getelementptr inbounds i8, ptr %20, i64 8
  %22 = load ptr, ptr %21, align 8
  %23 = tail call i32 %22(ptr noundef nonnull %0, ptr noundef %1, i1 noundef zeroext %2) #7
  %24 = icmp slt i32 %23, 0
  br i1 %24, label %25, label %29

25:                                               ; preds = %18
  %26 = load i64, ptr @H5E_DATASPACE_g, align 8
  %27 = load i64, ptr @H5E_CANTCOPY_g, align 8
  %28 = tail call i32 (ptr, ptr, i32, i64, i64, ptr, ...) @H5E_printf_stack(ptr noundef nonnull @.str.1, ptr noundef nonnull @__func__.H5S_select_copy, i32 noundef 238, i64 noundef %26, i64 noundef %27, ptr noundef nonnull @.str.9) #7
  br label %29

29:                                               ; preds = %18, %25, %11
  %.0 = phi i32 [ -1, %11 ], [ -1, %25 ], [ %23, %18 ]
  ret i32 %.0
}